target datalayout = "e-m:e-p270:32:32-p271:32:32-p272:64:64-i64:64-i128:128-f80:128-n8:16:32:64-S128"
target triple = "x86_64-pc-linux-gnu"

@.str.4 = private unnamed_addr constant [145 x i8] c"generated/home/dtcxzyw/WorkSpace/Projects/compilers/llvm-opt-benchmark/bench/abseil-cpp/abseil-cpp/absl/debugging/failure_signal_handler_test.cc\00", align 1
@_ZN12_GLOBAL__N_110error_fileE = internal global ptr null, align 8
@.str.46 = private unnamed_addr constant [20 x i8] c"Check %s failed: %s\00", align 1
@.str.47 = private unnamed_addr constant [45 x i8] c"fwrite(msg, strlen(msg), 1, error_file) == 1\00", align 1
@.str.48 = private unnamed_addr constant [16 x i8] c"fwrite() failed\00", align 1
@.str.49 = private unnamed_addr constant [24 x i8] c"fflush(error_file) == 0\00", align 1
@.str.50 = private unnamed_addr constant [16 x i8] c"fflush() failed\00", align 1

; Function Attrs: mustprogress uwtable
define internal void @_ZN12_GLOBAL__N_116WriteToErrorFileEPKc(ptr noundef %0) #4 {
  %2 = alloca ptr, align 8
  %3 = alloca ptr, align 8
  %4 = alloca ptr, align 8
  store ptr %0, ptr %2, align 8, !tbaa !30
  %5 = load ptr, ptr %2, align 8, !tbaa !30
  %6 = icmp ne ptr %5, null
  br i1 %6, label %7, label %27

7:                                                ; preds = %1
  br label %8

8:                                                ; preds = %7
  %9 = load ptr, ptr %2, align 8, !tbaa !30
  %10 = load ptr, ptr %2, align 8, !tbaa !30
  %11 = call i64 @strlen(ptr noundef %10) #26
  %12 = load ptr, ptr @_ZN12_GLOBAL__N_110error_fileE, align 8, !tbaa !141
  %13 = call i64 @fwrite(ptr noundef %9, i64 noundef %11, i64 noundef 1, ptr noundef %12)
  %14 = icmp eq i64 %13, 1
  %15 = xor i1 %14, true
  %16 = zext i1 %15 to i64
  %17 = call i64 @llvm.expect.i64(i64 %16, i64 0)
  %18 = icmp ne i64 %17, 0
  br i1 %18, label %19, label %25

19:                                               ; preds = %8
  br label %20

20:                                               ; preds = %19
  call void @llvm.lifetime.start.p0(i64 8, ptr %3) #3
  store ptr getelementptr (i8, ptr @.str.4, i64 114), ptr %3, align 8, !tbaa !30
  call void (i32, ptr, i32, ptr, ...) @_ZN4absl16raw_log_internal6RawLogENS_11LogSeverityEPKciS3_z(i32 noundef 3, ptr noundef getelementptr (i8, ptr @.str.4, i64 114), i32 noundef 68, ptr noundef @.str.46, ptr noundef @.str.47, ptr noundef @.str.48)
  br label %21

21:                                               ; preds = %20
  unreachable

22:                                               ; No predecessors!
  br label %23

23:                                               ; preds = %22
  call void @llvm.lifetime.end.p0(i64 8, ptr %3) #3
  br label %24

24:                                               ; preds = %23
  br label %25

25:                                               ; preds = %24, %8
  br label %26

26:                                               ; preds = %25
  br label %27

27:                                               ; preds = %26, %1
  br label %28

28:                                               ; preds = %27
  %29 = load ptr, ptr @_ZN12_GLOBAL__N_110error_fileE, align 8, !tbaa !141
  %30 = call i32 @fflush(ptr noundef %29)
  %31 = icmp eq i32 %30, 0
  %32 = xor i1 %31, true
  %33 = zext i1 %32 to i64
  %34 = call i64 @llvm.expect.i64(i64 %33, i64 0)
  %35 = icmp ne i64 %34, 0
  br i1 %35, label %36, label %42

36:                                               ; preds = %28
  br label %37

37:                                               ; preds = %36
  call void @llvm.lifetime.start.p0(i64 8, ptr %4) #3
  store ptr getelementptr (i8, ptr @.str.4, i64 114), ptr %4, align 8, !tbaa !30
  call void (i32, ptr, i32, ptr, ...) @_ZN4absl16raw_log_internal6RawLogENS_11LogSeverityEPKciS3_z(i32 noundef 3, ptr noundef getelementptr (i8, ptr @.str.4, i64 114), i32 noundef 70, ptr noundef @.str.46, ptr noundef @.str.49, ptr noundef @.str.50)
  br label %38

38:                                               ; preds = %37
  unreachable

39:                                               ; No predecessors!
  br label %40

40:                                               ; preds = %39
  call void @llvm.lifetime.end.p0(i64 8, ptr %4) #3
  br label %41

41:                                               ; preds = %40
  br label %42

42:                                               ; preds = %41, %28
  br label %43

43:                                               ; preds = %42
  ret void
}