; Function Attrs: mustprogress uwtable
define internal void @_ZN12_GLOBAL__N_116WriteToErrorFileEPKc(ptr noundef captures(address_is_null) %0) #3 {
  %.not = icmp eq ptr %0, null
  br i1 %.not, label %7, label %2

2:                                                ; preds = %1
  %3 = tail call i64 @strlen(ptr noundef nonnull dereferenceable(1) %0) #41
  %4 = load ptr, ptr @_ZN12_GLOBAL__N_110error_fileE, align 8, !tbaa !86
  %5 = tail call i64 @fwrite(ptr noundef nonnull %0, i64 noundef %3, i64 noundef 1, ptr noundef %4)
  %.not3 = icmp eq i64 %5, 1
  br i1 %.not3, label %7, label %6, !prof !207

6:                                                ; preds = %2
  tail call void (i32, ptr, i32, ptr, ...) @_ZN4absl16raw_log_internal6RawLogENS_11LogSeverityEPKciS3_z(i32 noundef 3, ptr noundef nonnull getelementptr inbounds nuw (i8, ptr @.str.4, i64 114), i32 noundef 68, ptr noundef nonnull @.str.46, ptr noundef nonnull @.str.47, ptr noundef nonnull @.str.48)
  unreachable

7:                                                ; preds = %1, %2
  %8 = load ptr, ptr @_ZN12_GLOBAL__N_110error_fileE, align 8, !tbaa !86
  %9 = tail call i32 @fflush(ptr noundef %8)
  %.not4 = icmp eq i32 %9, 0
  br i1 %.not4, label %11, label %10, !prof !207

10:                                               ; preds = %7
  tail call void (i32, ptr, i32, ptr, ...) @_ZN4absl16raw_log_internal6RawLogENS_11LogSeverityEPKciS3_z(i32 noundef 3, ptr noundef nonnull getelementptr inbounds nuw (i8, ptr @.str.4, i64 114), i32 noundef 70, ptr noundef nonnull @.str.46, ptr noundef nonnull @.str.49, ptr noundef nonnull @.str.50)
  unreachable

11:                                               ; preds = %7
  ret void
}